; Function Attrs: mustprogress nofree norecurse nosync nounwind willreturn memory(argmem: readwrite) uwtable
define dso_local void @_ZN6Effect5clearEv(ptr noundef nonnull align 8 captures(none) dereferenceable(74) initializes((72, 74)) %0) local_unnamed_addr #11 align 2 personality ptr @__gxx_personality_v0 {
  %2 = load ptr, ptr %0, align 8, !tbaa !17
  %3 = getelementptr inbounds nuw i8, ptr %0, i64 8
  %4 = load ptr, ptr %3, align 8, !tbaa !16
  %.not.i.i = icmp eq ptr %4, %2
  br i1 %.not.i.i, label %_ZNSt6vectorIPK8VariableSaIS2_EE5clearEv.exit, label %5

5:                                                ; preds = %1
  store ptr %2, ptr %3, align 8, !tbaa !16
  br label %_ZNSt6vectorIPK8VariableSaIS2_EE5clearEv.exit

_ZNSt6vectorIPK8VariableSaIS2_EE5clearEv.exit:    ; preds = %1, %5
  %6 = getelementptr inbounds nuw i8, ptr %0, i64 24
  %7 = load ptr, ptr %6, align 8, !tbaa !17
  %8 = getelementptr inbounds nuw i8, ptr %0, i64 32
  %9 = load ptr, ptr %8, align 8, !tbaa !16
  %.not.i.i1 = icmp eq ptr %9, %7
  br i1 %.not.i.i1, label %_ZNSt6vectorIPK8VariableSaIS2_EE5clearEv.exit2, label %10

10:                                               ; preds = %_ZNSt6vectorIPK8VariableSaIS2_EE5clearEv.exit
  store ptr %7, ptr %8, align 8, !tbaa !16
  br label %_ZNSt6vectorIPK8VariableSaIS2_EE5clearEv.exit2

_ZNSt6vectorIPK8VariableSaIS2_EE5clearEv.exit2:   ; preds = %_ZNSt6vectorIPK8VariableSaIS2_EE5clearEv.exit, %10
  %11 = getelementptr inbounds nuw i8, ptr %0, i64 73
  store i8 1, ptr %11, align 1, !tbaa !15
  %12 = getelementptr inbounds nuw i8, ptr %0, i64 72
  store i8 1, ptr %12, align 8, !tbaa !4
  ret void
}